; Function Attrs: mustprogress uwtable
define dso_local void @_ZNK13ArrayVariable21build_initializer_strERKSt6vectorINSt7__cxx1112basic_stringIcSt11char_traitsIcESaIcEEESaIS6_EE(ptr dead_on_unwind noalias writable sret(%"class.std::__cxx11::basic_string") align 8 %0, ptr nocapture noundef nonnull readonly align 8 dereferenceable(288) %1, ptr nocapture noundef nonnull readonly align 8 dereferenceable(24) %2) local_unnamed_addr #3 align 2 personality ptr @__gxx_personality_v0 {
  %4 = alloca %"class.std::__cxx11::basic_string", align 8
  %5 = alloca %"class.std::__cxx11::basic_string", align 8
  call void @_ZNSt7__cxx1112basic_stringIcSt11char_traitsIcESaIcEEC1Ev(ptr noundef nonnull align 8 dereferenceable(32) %4) #19
  call void @_ZNSt7__cxx1112basic_stringIcSt11char_traitsIcESaIcEEC1Ev(ptr noundef nonnull align 8 dereferenceable(32) %5) #19
  %6 = invoke noundef zeroext i1 @_ZN9CGOptions28force_non_uniform_array_initEv()
          to label %7 unwind label %.loopexit.split-lp.loopexit.split-lp

7:                                                ; preds = %3
  br i1 %6, label %8, label %9

8:                                                ; preds = %7
  invoke void @_ZNK13ArrayVariable20build_init_recursiveEmRKSt6vectorINSt7__cxx1112basic_stringIcSt11char_traitsIcESaIcEEESaIS6_EE(ptr dead_on_unwind writable sret(%"class.std::__cxx11::basic_string") align 8 %0, ptr noundef nonnull align 8 dereferenceable(288) %1, i64 noundef 0, ptr noundef nonnull align 8 dereferenceable(24) %2)
          to label %67 unwind label %.loopexit.split-lp.loopexit.split-lp

.loopexit:                                        ; preds = %.invoke, %57
  %lpad.loopexit = landingpad { ptr, i32 }
          cleanup
  br label %.loopexit.split-lp

.loopexit.split-lp.loopexit:                      ; preds = %64, %._crit_edge, %23
  %lpad.loopexit20 = landingpad { ptr, i32 }
          cleanup
  br label %.loopexit.split-lp

.loopexit.split-lp.loopexit.split-lp:             ; preds = %8, %3
  %lpad.loopexit.split-lp21 = landingpad { ptr, i32 }
          cleanup
  br label %.loopexit.split-lp

.loopexit.split-lp:                               ; preds = %.loopexit.split-lp.loopexit, %.loopexit.split-lp.loopexit.split-lp, %.loopexit
  %lpad.phi = phi { ptr, i32 } [ %lpad.loopexit, %.loopexit ], [ %lpad.loopexit20, %.loopexit.split-lp.loopexit ], [ %lpad.loopexit.split-lp21, %.loopexit.split-lp.loopexit.split-lp ]
  call void @_ZNSt7__cxx1112basic_stringIcSt11char_traitsIcESaIcEED1Ev(ptr noundef nonnull align 8 dereferenceable(32) %5) #19
  call void @_ZNSt7__cxx1112basic_stringIcSt11char_traitsIcESaIcEED1Ev(ptr noundef nonnull align 8 dereferenceable(32) %4) #19
  resume { ptr, i32 } %lpad.phi

9:                                                ; preds = %7
  %10 = getelementptr inbounds i8, ptr %1, i64 216
  %11 = getelementptr inbounds i8, ptr %1, i64 224
  %12 = load ptr, ptr %11, align 8
  %13 = load ptr, ptr %10, align 8
  %14 = ptrtoint ptr %12 to i64
  %15 = ptrtoint ptr %13 to i64
  %16 = sub i64 %14, %15
  %17 = lshr i64 %16, 2
  %18 = getelementptr inbounds i8, ptr %2, i64 8
  %19 = and i64 %17, 4294967295
  br label %20

20:                                               ; preds = %64, %9
  %indvars.iv = phi i64 [ %indvars.iv.next, %64 ], [ %19, %9 ]
  %indvars.iv.next = add nsw i64 %indvars.iv, -1
  %21 = and i64 %indvars.iv.next, 2147483648
  %22 = icmp eq i64 %21, 0
  br i1 %22, label %23, label %66

23:                                               ; preds = %20
  %24 = and i64 %indvars.iv.next, 2147483647
  %25 = load ptr, ptr %10, align 8
  %26 = getelementptr inbounds i32, ptr %25, i64 %24
  %27 = load i32, ptr %26, align 4
  %28 = zext i32 %27 to i64
  %29 = invoke noundef nonnull align 8 dereferenceable(32) ptr @_ZNSt7__cxx1112basic_stringIcSt11char_traitsIcESaIcEEaSEPKc(ptr noundef nonnull align 8 dereferenceable(32) %5, ptr noundef nonnull @.str)
          to label %.preheader unwind label %.loopexit.split-lp.loopexit

.preheader:                                       ; preds = %23
  %.not = icmp eq i32 %27, 0
  br i1 %.not, label %._crit_edge, label %.lr.ph

.lr.ph:                                           ; preds = %.preheader
  %30 = add nsw i64 %28, -1
  br label %31

31:                                               ; preds = %.lr.ph, %61
  %.023 = phi i64 [ 0, %.lr.ph ], [ %62, %61 ]
  %32 = load ptr, ptr %11, align 8
  %33 = load ptr, ptr %10, align 8
  %34 = ptrtoint ptr %32 to i64
  %35 = ptrtoint ptr %33 to i64
  %36 = sub i64 %34, %35
  %37 = lshr exact i64 %36, 2
  %38 = and i64 %37, 4294967295
  %39 = icmp eq i64 %indvars.iv, %38
  br i1 %39, label %40, label %.invoke

40:                                               ; preds = %31
  %41 = add nuw nsw i64 %.023, 7
  %42 = add nuw nsw i64 %.023, 13
  %43 = mul i64 %41, %42
  %44 = add i64 %43, %24
  %45 = mul i64 %44, 52369
  %46 = load ptr, ptr %18, align 8
  %47 = load ptr, ptr %2, align 8
  %48 = ptrtoint ptr %46 to i64
  %49 = ptrtoint ptr %47 to i64
  %50 = sub i64 %48, %49
  %51 = ashr exact i64 %50, 5
  %52 = urem i64 %45, %51
  %53 = and i64 %52, 4294967295
  %54 = getelementptr inbounds %"class.std::__cxx11::basic_string", ptr %47, i64 %53
  br label %.invoke

.invoke:                                          ; preds = %31, %40
  %55 = phi ptr [ %54, %40 ], [ %4, %31 ]
  %56 = invoke noundef nonnull align 8 dereferenceable(32) ptr @_ZNSt7__cxx1112basic_stringIcSt11char_traitsIcESaIcEEpLERKS4_(ptr noundef nonnull align 8 dereferenceable(32) %5, ptr noundef nonnull align 8 dereferenceable(32) %55)
          to label %57 unwind label %.loopexit

57:                                               ; preds = %.invoke
  %58 = icmp ult i64 %.023, %30
  %59 = select i1 %58, ptr @.str.3, ptr @.str.4
  %60 = invoke noundef nonnull align 8 dereferenceable(32) ptr @_ZNSt7__cxx1112basic_stringIcSt11char_traitsIcESaIcEEpLEPKc(ptr noundef nonnull align 8 dereferenceable(32) %5, ptr noundef nonnull %59)
          to label %61 unwind label %.loopexit

61:                                               ; preds = %57
  %62 = add nuw nsw i64 %.023, 1
  %exitcond.not = icmp eq i64 %62, %28
  br i1 %exitcond.not, label %._crit_edge, label %31, !llvm.loop !22

._crit_edge:                                      ; preds = %61, %.preheader
  %63 = invoke noundef nonnull align 8 dereferenceable(32) ptr @_ZNSt7__cxx1112basic_stringIcSt11char_traitsIcESaIcEEpLEPKc(ptr noundef nonnull align 8 dereferenceable(32) %5, ptr noundef nonnull @.str.2)
          to label %64 unwind label %.loopexit.split-lp.loopexit

64:                                               ; preds = %._crit_edge
  %65 = invoke noundef nonnull align 8 dereferenceable(32) ptr @_ZNSt7__cxx1112basic_stringIcSt11char_traitsIcESaIcEEaSERKS4_(ptr noundef nonnull align 8 dereferenceable(32) %4, ptr noundef nonnull align 8 dereferenceable(32) %5)
          to label %20 unwind label %.loopexit.split-lp.loopexit, !llvm.loop !23

66:                                               ; preds = %20
  call void @_ZNSt7__cxx1112basic_stringIcSt11char_traitsIcESaIcEEC1EOS4_(ptr noundef nonnull align 8 dereferenceable(32) %0, ptr noundef nonnull align 8 dereferenceable(32) %4) #19
  br label %67

67:                                               ; preds = %8, %66
  call void @_ZNSt7__cxx1112basic_stringIcSt11char_traitsIcESaIcEED1Ev(ptr noundef nonnull align 8 dereferenceable(32) %5) #19
  call void @_ZNSt7__cxx1112basic_stringIcSt11char_traitsIcESaIcEED1Ev(ptr noundef nonnull align 8 dereferenceable(32) %4) #19
  ret void
}